target datalayout = "e-m:e-p270:32:32-p271:32:32-p272:64:64-i64:64-i128:128-f80:128-n8:16:32:64-S128"
target triple = "x86_64-pc-linux-gnu"

; Function Attrs: nounwind uwtable
define internal i32 @f(double noundef %0, ptr noundef %1, ptr noundef %2, ptr noundef %3) #0 {
  %5 = alloca double, align 8
  %6 = alloca ptr, align 8
  %7 = alloca ptr, align 8
  %8 = alloca ptr, align 8
  %9 = alloca ptr, align 8
  %10 = alloca ptr, align 8
  %11 = alloca double, align 8
  %12 = alloca double, align 8
  %13 = alloca double, align 8
  %14 = alloca double, align 8
  %15 = alloca double, align 8
  store double %0, ptr %5, align 8, !tbaa !11
  store ptr %1, ptr %6, align 8, !tbaa !14
  store ptr %2, ptr %7, align 8, !tbaa !14
  store ptr %3, ptr %8, align 8, !tbaa !13
  call void @llvm.lifetime.start.p0(i64 8, ptr %9) #7
  store ptr null, ptr %9, align 8, !tbaa !16
  call void @llvm.lifetime.start.p0(i64 8, ptr %10) #7
  store ptr null, ptr %10, align 8, !tbaa !16
  call void @llvm.lifetime.start.p0(i64 8, ptr %11) #7
  call void @llvm.lifetime.start.p0(i64 8, ptr %12) #7
  call void @llvm.lifetime.start.p0(i64 8, ptr %13) #7
  call void @llvm.lifetime.start.p0(i64 8, ptr %14) #7
  call void @llvm.lifetime.start.p0(i64 8, ptr %15) #7
  %16 = load ptr, ptr %6, align 8, !tbaa !14
  %17 = call ptr @N_VGetArrayPointer(ptr noundef %16)
  store ptr %17, ptr %9, align 8, !tbaa !16
  %18 = load ptr, ptr %7, align 8, !tbaa !14
  %19 = call ptr @N_VGetArrayPointer(ptr noundef %18)
  store ptr %19, ptr %10, align 8, !tbaa !16
  %20 = load ptr, ptr %9, align 8, !tbaa !16
  %21 = getelementptr inbounds double, ptr %20, i64 0
  %22 = load double, ptr %21, align 8, !tbaa !11
  store double %22, ptr %11, align 8, !tbaa !11
  %23 = load ptr, ptr %9, align 8, !tbaa !16
  %24 = getelementptr inbounds double, ptr %23, i64 1
  %25 = load double, ptr %24, align 8, !tbaa !11
  store double %25, ptr %12, align 8, !tbaa !11
  %26 = load ptr, ptr %9, align 8, !tbaa !16
  %27 = getelementptr inbounds double, ptr %26, i64 2
  %28 = load double, ptr %27, align 8, !tbaa !11
  store double %28, ptr %13, align 8, !tbaa !11
  %29 = load ptr, ptr %9, align 8, !tbaa !16
  %30 = getelementptr inbounds double, ptr %29, i64 3
  %31 = load double, ptr %30, align 8, !tbaa !11
  store double %31, ptr %14, align 8, !tbaa !11
  %32 = load double, ptr %13, align 8, !tbaa !11
  %33 = load double, ptr %13, align 8, !tbaa !11
  %34 = load double, ptr %14, align 8, !tbaa !11
  %35 = load double, ptr %14, align 8, !tbaa !11
  %36 = fmul double %34, %35
  %37 = call double @llvm.fmuladd.f64(double %32, double %33, double %36)
  %38 = load double, ptr %12, align 8, !tbaa !11
  %39 = call double @llvm.fmuladd.f64(double 0xC02B8030B6094833, double %38, double %37)
  store double %39, ptr %15, align 8, !tbaa !11
  %40 = load double, ptr %13, align 8, !tbaa !11
  %41 = load ptr, ptr %10, align 8, !tbaa !16
  %42 = getelementptr inbounds double, ptr %41, i64 0
  store double %40, ptr %42, align 8, !tbaa !11
  %43 = load double, ptr %14, align 8, !tbaa !11
  %44 = load ptr, ptr %10, align 8, !tbaa !16
  %45 = getelementptr inbounds double, ptr %44, i64 1
  store double %43, ptr %45, align 8, !tbaa !11
  %46 = load double, ptr %11, align 8, !tbaa !11
  %47 = fneg double %46
  %48 = load double, ptr %15, align 8, !tbaa !11
  %49 = fmul double %47, %48
  %50 = load ptr, ptr %10, align 8, !tbaa !16
  %51 = getelementptr inbounds double, ptr %50, i64 2
  store double %49, ptr %51, align 8, !tbaa !11
  %52 = load double, ptr %12, align 8, !tbaa !11
  %53 = fneg double %52
  %54 = load double, ptr %15, align 8, !tbaa !11
  %55 = call double @llvm.fmuladd.f64(double %53, double %54, double 0xC02B8030B6094833)
  %56 = load ptr, ptr %10, align 8, !tbaa !16
  %57 = getelementptr inbounds double, ptr %56, i64 3
  store double %55, ptr %57, align 8, !tbaa !11
  call void @llvm.lifetime.end.p0(i64 8, ptr %15) #7
  call void @llvm.lifetime.end.p0(i64 8, ptr %14) #7
  call void @llvm.lifetime.end.p0(i64 8, ptr %13) #7
  call void @llvm.lifetime.end.p0(i64 8, ptr %12) #7
  call void @llvm.lifetime.end.p0(i64 8, ptr %11) #7
  call void @llvm.lifetime.end.p0(i64 8, ptr %10) #7
  call void @llvm.lifetime.end.p0(i64 8, ptr %9) #7
  ret i32 0
}