; Function Attrs: nounwind uwtable
define internal noundef i32 @f(double %0, ptr noundef %1, ptr noundef %2, ptr readnone captures(none) %3) #0 {
  %5 = tail call ptr @N_VGetArrayPointer(ptr noundef %1) #12
  %6 = tail call ptr @N_VGetArrayPointer(ptr noundef %2) #12
  %7 = load double, ptr %5, align 8, !tbaa !13
  %8 = getelementptr inbounds nuw i8, ptr %5, i64 8
  %9 = load double, ptr %8, align 8, !tbaa !13
  %10 = getelementptr inbounds nuw i8, ptr %5, i64 16
  %11 = load double, ptr %10, align 8, !tbaa !13
  %12 = getelementptr inbounds nuw i8, ptr %5, i64 24
  %13 = load double, ptr %12, align 8, !tbaa !13
  %14 = fmul double %13, %13
  %15 = tail call double @llvm.fmuladd.f64(double %11, double %11, double %14)
  %16 = tail call double @llvm.fmuladd.f64(double %9, double 0xC02B8030B6094833, double %15)
  store double %11, ptr %6, align 8, !tbaa !13
  %17 = getelementptr inbounds nuw i8, ptr %6, i64 8
  store double %13, ptr %17, align 8, !tbaa !13
  %18 = fneg double %7
  %19 = fmul double %16, %18
  %20 = getelementptr inbounds nuw i8, ptr %6, i64 16
  store double %19, ptr %20, align 8, !tbaa !13
  %21 = fneg double %9
  %22 = tail call double @llvm.fmuladd.f64(double %21, double %16, double 0xC02B8030B6094833)
  %23 = getelementptr inbounds nuw i8, ptr %6, i64 24
  store double %22, ptr %23, align 8, !tbaa !13
  ret i32 0
}